; Function Attrs: nofree nosync nounwind memory(readwrite, inaccessiblemem: none) uwtable
define i32 @Cudd_SharingSize(ptr noundef readonly captures(none) %0, i32 noundef %1) local_unnamed_addr #6 {
  %3 = icmp sgt i32 %1, 0
  br i1 %3, label %.lr.ph.preheader, label %._crit_edge

.lr.ph.preheader:                                 ; preds = %2
  %wide.trip.count = zext nneg i32 %1 to i64
  br label %.lr.ph

.lr.ph16.preheader:                               ; preds = %.lr.ph
  %wide.trip.count21 = zext nneg i32 %1 to i64
  br label %.lr.ph16

.lr.ph:                                           ; preds = %.lr.ph.preheader, %.lr.ph
  %indvars.iv = phi i64 [ 0, %.lr.ph.preheader ], [ %indvars.iv.next, %.lr.ph ]
  %.01113 = phi i32 [ 0, %.lr.ph.preheader ], [ %10, %.lr.ph ]
  %4 = getelementptr inbounds nuw ptr, ptr %0, i64 %indvars.iv
  %5 = load ptr, ptr %4, align 8
  %6 = ptrtoint ptr %5 to i64
  %7 = and i64 %6, -2
  %8 = inttoptr i64 %7 to ptr
  %9 = tail call fastcc i32 @ddDagInt(ptr noundef %8)
  %10 = add nsw i32 %9, %.01113
  %indvars.iv.next = add nuw nsw i64 %indvars.iv, 1
  %exitcond.not = icmp eq i64 %indvars.iv.next, %wide.trip.count
  br i1 %exitcond.not, label %.lr.ph16.preheader, label %.lr.ph, !llvm.loop !13

.lr.ph16:                                         ; preds = %.lr.ph16.preheader, %.lr.ph16
  %indvars.iv18 = phi i64 [ 0, %.lr.ph16.preheader ], [ %indvars.iv.next19, %.lr.ph16 ]
  %11 = getelementptr inbounds nuw ptr, ptr %0, i64 %indvars.iv18
  %12 = load ptr, ptr %11, align 8
  %13 = ptrtoint ptr %12 to i64
  %14 = and i64 %13, -2
  %15 = inttoptr i64 %14 to ptr
  tail call fastcc void @ddClearFlag(ptr noundef %15)
  %indvars.iv.next19 = add nuw nsw i64 %indvars.iv18, 1
  %exitcond22.not = icmp eq i64 %indvars.iv.next19, %wide.trip.count21
  br i1 %exitcond22.not, label %._crit_edge, label %.lr.ph16, !llvm.loop !14

._crit_edge:                                      ; preds = %.lr.ph16, %2
  %.011.lcssa24 = phi i32 [ 0, %2 ], [ %10, %.lr.ph16 ]
  ret i32 %.011.lcssa24
}